#include <math.h>
#include <stdio.h>
#include <stdlib.h>
#include <string.h>

int main()
{
	int n;
	scanf("%d",&n);
	int i,a;
	int k,s,t;
	t=0;
	for (i=3;i<n-1;i++)
	{
		a=i+2;
		s=0;
		for (k=2;k<i;k++)
		{
			if (i%k==0||a%k==0)
			    break;
			s=s+1;
		}
		if (s==i-2)
		{
			printf("%d %d\n",i,a);
			t++;
		}
	}
	if (t==0)
		printf("empty");
	return 0;
}