; ModuleID = 'source-C-CXX/59/1573.c'
source_filename = "source-C-CXX/59/1573.c"
target datalayout = "e-m:e-p270:32:32-p271:32:32-p272:64:64-i64:64-f80:128-n8:16:32:64-S128"
target triple = "x86_64-pc-linux-gnu"

@.str = private unnamed_addr constant [3 x i8] c"%d\00", align 1
@.str.1 = private unnamed_addr constant [7 x i8] c"%d %d\0A\00", align 1
@.str.2 = private unnamed_addr constant [6 x i8] c"empty\00", align 1

; Function Attrs: nofree nounwind sspstrong uwtable
define dso_local i32 @main() local_unnamed_addr #0 {
  %1 = alloca i32, align 4
  %2 = bitcast i32* %1 to i8*
  call void @llvm.lifetime.start.p0i8(i64 4, i8* nonnull %2) #3
  %3 = call i32 (i8*, ...) @__isoc99_scanf(i8* getelementptr inbounds ([3 x i8], [3 x i8]* @.str, i64 0, i64 0), i32* nonnull %1)
  %4 = load i32, i32* %1, align 4, !tbaa !5
  %5 = icmp sgt i32 %4, 4
  br i1 %5, label %6, label %41

6:                                                ; preds = %0, %32
  %7 = phi i32 [ %33, %32 ], [ %4, %0 ]
  %8 = phi i32 [ %38, %32 ], [ 1, %0 ]
  %9 = phi i32 [ %34, %32 ], [ 0, %0 ]
  %10 = phi i32 [ %35, %32 ], [ 3, %0 ]
  %11 = add nuw nsw i32 %10, 2
  br label %12

12:                                               ; preds = %6, %20
  %13 = phi i32 [ %21, %20 ], [ 0, %6 ]
  %14 = phi i32 [ %22, %20 ], [ 2, %6 ]
  %15 = urem i32 %10, %14
  %16 = icmp eq i32 %15, 0
  br i1 %16, label %24, label %17

17:                                               ; preds = %12
  %18 = urem i32 %11, %14
  %19 = icmp eq i32 %18, 0
  br i1 %19, label %24, label %20

20:                                               ; preds = %17
  %21 = add nuw nsw i32 %13, 1
  %22 = add nuw nsw i32 %14, 1
  %23 = icmp eq i32 %21, %8
  br i1 %23, label %24, label %12, !llvm.loop !9

24:                                               ; preds = %20, %17, %12
  %25 = phi i32 [ %8, %20 ], [ %13, %17 ], [ %13, %12 ]
  %26 = add nsw i32 %10, -2
  %27 = icmp eq i32 %25, %26
  br i1 %27, label %28, label %32

28:                                               ; preds = %24
  %29 = call i32 (i8*, ...) @printf(i8* nonnull dereferenceable(1) getelementptr inbounds ([7 x i8], [7 x i8]* @.str.1, i64 0, i64 0), i32 %10, i32 %11)
  %30 = add nsw i32 %9, 1
  %31 = load i32, i32* %1, align 4, !tbaa !5
  br label %32

32:                                               ; preds = %24, %28
  %33 = phi i32 [ %31, %28 ], [ %7, %24 ]
  %34 = phi i32 [ %30, %28 ], [ %9, %24 ]
  %35 = add nuw nsw i32 %10, 1
  %36 = add nsw i32 %33, -1
  %37 = icmp slt i32 %35, %36
  %38 = add nuw nsw i32 %8, 1
  br i1 %37, label %6, label %39, !llvm.loop !11

39:                                               ; preds = %32
  %40 = icmp eq i32 %34, 0
  br i1 %40, label %41, label %43

41:                                               ; preds = %0, %39
  %42 = call i32 (i8*, ...) @printf(i8* nonnull dereferenceable(1) getelementptr inbounds ([6 x i8], [6 x i8]* @.str.2, i64 0, i64 0))
  br label %43

43:                                               ; preds = %41, %39
  call void @llvm.lifetime.end.p0i8(i64 4, i8* nonnull %2) #3
  ret i32 0
}

; Function Attrs: argmemonly mustprogress nofree nosync nounwind willreturn
declare void @llvm.lifetime.start.p0i8(i64 immarg, i8* nocapture) #1

; Function Attrs: nofree nounwind
declare noundef i32 @__isoc99_scanf(i8* nocapture noundef readonly, ...) local_unnamed_addr #2

; Function Attrs: nofree nounwind
declare noundef i32 @printf(i8* nocapture noundef readonly, ...) local_unnamed_addr #2

; Function Attrs: argmemonly mustprogress nofree nosync nounwind willreturn
declare void @llvm.lifetime.end.p0i8(i64 immarg, i8* nocapture) #1


!llvm.module.flags = !{!0, !1, !2, !3}
!llvm.ident = !{!4}

!0 = !{i32 1, !"wchar_size", i32 4}
!1 = !{i32 7, !"PIC Level", i32 2}
!2 = !{i32 7, !"PIE Level", i32 2}
!3 = !{i32 7, !"uwtable", i32 1}
!4 = !{!"clang version 13.0.0"}
!5 = !{!6, !6, i64 0}
!6 = !{!"int", !7, i64 0}
!7 = !{!"omnipotent char", !8, i64 0}
!8 = !{!"Simple C/C++ TBAA"}
!9 = distinct !{!9, !10}
!10 = !{!"llvm.loop.mustprogress"}
!11 = distinct !{!11, !10}
